(dp1
S'1'
(dp2
S'nr'
p3
I1
sS'lastValid'
p4
(dp5
S'Cumulative'
p6
I01
sS'Global'
p7
I01
ssS'values'
p8
(dp9
g7
(lp10
F-8.1394599999999999e-20
aF-4.4882799999999998e-19
aF5.3435899999999998e-20
aF-4.0589800000000001e-19
aF6.9061300000000002e-19
aF-1.636e-18
aF1.08526e-18
aF-6.6877600000000002e-19
aF-6.3800399999999997e-19
aF7.6481099999999999e-19
aF2.2218099999999999e-19
aF-6.3775599999999999e-20
aF9.5216800000000005e-19
aF-5.2501200000000001e-19
aF9.1271099999999999e-19
aF1.6642900000000001e-19
aF6.0814299999999997e-19
aF-1.26724e-19
aF-5.6777700000000003e-19
aF5.4163800000000001e-19
aF-8.1808199999999998e-20
aF-6.6645899999999996e-19
aF8.7581899999999996e-19
aF6.84988e-19
aF1.11744e-18
aF1.1314999999999999e-18
aF1.5098499999999999e-18
aF2.7495499999999999e-19
aF2.7710599999999999e-20
aF-1.5188700000000001e-18
aF-5.5851199999999997e-19
aF6.3295900000000001e-19
aF5.0871600000000001e-20
aF9.1982500000000003e-19
aF-8.6274899999999995e-20
aF1.8189699999999999e-19
aF1.12827e-19
aF1.3077700000000001e-18
aF-4.4874499999999996e-19
aF-9.2834500000000009e-19
aF-7.3246799999999998e-19
aF1.1390300000000001e-19
aF-5.0830200000000001e-19
aF-7.5711799999999998e-19
aF-9.8409699999999995e-19
aF7.4752300000000001e-19
aF1.2738599999999999e-19
aF-6.3775599999999999e-20
aF2.99274e-19
aF4.46843e-19
aF4.5842400000000003e-19
aF-9.9145900000000006e-19
aF-9.5638600000000007e-19
aF-5.1227300000000005e-19
aF-3.6561400000000001e-19
aF-4.6901100000000002e-20
aF-3.90595e-19
aF6.5156999999999997e-19
aF8.9103899999999995e-19
aF-7.6514199999999998e-19
aF1.83138e-19
aF5.7811700000000001e-19
aF7.3263400000000002e-19
aF1.93891e-19
aF-2.37649e-19
aF-6.6042100000000002e-19
aF-4.7571200000000002e-19
aF7.12451e-19
aF4.7198900000000005e-19
aF-5.0557200000000002e-19
aF4.5230199999999998e-19
aF-3.03575e-20
aF-2.5841099999999998e-19
aF-4.2508799999999999e-19
aF4.9151099999999997e-19
aF2.19203e-20
aF1.4296199999999999e-18
aF-1.02496e-18
aF5.4800700000000004e-19
aF-1.53798e-18
aF1.1487900000000001e-18
aF-1.6243300000000001e-18
aF4.9655700000000002e-19
aF1.42606e-19
aF8.2825599999999996e-19
aF-6.9127500000000001e-19
aF-6.38501e-19
aF8.3024100000000003e-19
aF8.29083e-19
aF-6.35688e-19
aF1.23531e-18
aF-4.3890200000000002e-19
aF-2.02411e-19
aF3.9646799999999999e-19
aF1.04142e-19
aF5.1028799999999998e-19
aF-6.2129499999999996e-19
aF-6.0508299999999998e-19
aF-1.05077e-18
asg6
(lp11
F7.2791899999999996e-19
aF3.31741e-19
aF1.05494e-18
aF-3.0080399999999999e-19
aF-2.7929799999999999e-19
aF-1.4475200000000001e-18
aF-6.03056e-19
aF-5.1049500000000003e-19
aF-2.56587e-18
aF-4.3960500000000002e-19
aF-1.32721e-19
aF-7.9843599999999997e-19
aF3.2487500000000002e-19
aF-1.2923499999999999e-18
aF-1.7329e-18
aF-9.7512199999999996e-19
aF-1.5943499999999999e-18
aF-1.66193e-18
aF-2.5806e-18
aF-1.9105e-18
aF-2.9196599999999998e-18
aF-3.0079199999999999e-18
aF-2.79815e-18
aF-2.01911e-18
aF-1.2623999999999999e-18
aF-3.8261200000000001e-19
aF9.6354099999999993e-19
aF5.1988300000000002e-20
aF-2.4391499999999998e-18
aF-4.7072800000000001e-18
aF-5.6397600000000001e-18
aF-5.2358499999999998e-18
aF-6.2493900000000003e-18
aF-4.3929500000000002e-18
aF-4.9549400000000002e-18
aF-5.4708499999999997e-18
aF-5.8683100000000003e-18
aF-5.2982200000000003e-18
aF-5.5017899999999997e-18
aF-7.2128100000000004e-18
aF-6.7954099999999998e-18
aF-6.1467400000000003e-18
aF-6.4924999999999999e-18
aF-7.5146500000000003e-18
aF-7.9549499999999994e-18
aF-7.5814000000000003e-18
aF-7.9733999999999995e-18
aF-8.2015399999999996e-18
aF-6.9265999999999998e-18
aF-5.9115700000000002e-18
aF-5.5547199999999997e-18
aF-5.60369e-18
aF-6.6872999999999998e-18
aF-7.1520099999999999e-18
aF-7.6302900000000004e-18
aF-8.0661299999999998e-18
aF-9.1193799999999999e-18
aF-7.6331799999999993e-18
aF-7.0162699999999994e-18
aF-7.7070499999999994e-18
aF-7.0415800000000001e-18
aF-7.4334200000000003e-18
aF-6.1861100000000003e-18
aF-5.9775e-18
aF-6.5213699999999998e-18
aF-8.1131899999999996e-18
aF-8.2643199999999995e-18
aF-7.0572200000000007e-18
aF-5.86153e-18
aF-5.7951000000000001e-18
aF-4.9925699999999999e-18
aF-5.64365e-18
aF-6.1195199999999999e-18
aF-5.7526700000000002e-18
aF-4.8541799999999997e-18
aF-4.69892e-18
aF-3.0774800000000001e-18
aF-4.1308199999999999e-18
aF-3.83948e-18
aF-3.4286199999999999e-18
aF-2.5382399999999998e-18
aF-3.56378e-18
aF-4.0908599999999998e-18
aF-2.6415600000000001e-18
aF-1.56316e-18
aF-1.2012699999999999e-18
aF-1.68633e-18
aF-5.0354600000000004e-19
aF5.8576800000000002e-19
aF-2.8748600000000001e-19
aF8.0521900000000003e-19
aF7.2254499999999997e-20
aF4.3828200000000003e-19
aF1.9068600000000001e-18
aF1.1116100000000001e-18
aF9.8802600000000008e-19
aF1.2337800000000001e-18
aF1.4450399999999999e-18
aF5.7443599999999995e-19
assS'slaves'
p12
(lp13
sS'times'
p14
(lp15
F0.01
aF0.014999999999999999
aF0.02
aF0.025000000000000001
aF0.029999999999999999
aF0.035000000000000003
aF0.040000000000000001
aF0.044999999999999998
aF0.050000000000000003
aF0.055
aF0.059999999999999998
aF0.065000000000000002
aF0.070000000000000007
aF0.074999999999999997
aF0.080000000000000002
aF0.085000000000000006
aF0.089999999999999997
aF0.095000000000000001
aF0.10000000000000001
aF0.105
aF0.11
aF0.115
aF0.12
aF0.125
aF0.13
aF0.13500000000000001
aF0.14000000000000001
aF0.14499999999999999
aF0.14999999999999999
aF0.155
aF0.16
aF0.16500000000000001
aF0.17000000000000001
aF0.17499999999999999
aF0.17999999999999999
aF0.185
aF0.19
aF0.19500000000000001
aF0.20000000000000001
aF0.20499999999999999
aF0.20999999999999999
aF0.215
aF0.22
aF0.22500000000000001
aF0.23000000000000001
aF0.23499999999999999
aF0.23999999999999999
aF0.245
aF0.25
aF0.255
aF0.26000000000000001
aF0.26500000000000001
aF0.27000000000000002
aF0.27500000000000002
aF0.28000000000000003
aF0.28499999999999998
aF0.28999999999999998
aF0.29499999999999998
aF0.29999999999999999
aF0.30499999999999999
aF0.31
aF0.315
aF0.32000000000000001
aF0.32500000000000001
aF0.33000000000000002
aF0.33500000000000002
aF0.34000000000000002
aF0.34499999999999997
aF0.34999999999999998
aF0.35499999999999998
aF0.35999999999999999
aF0.36499999999999999
aF0.37
aF0.375
aF0.38
aF0.38500000000000001
aF0.39000000000000001
aF0.39500000000000002
aF0.40000000000000002
aF0.40500000000000003
aF0.40999999999999998
aF0.41499999999999998
aF0.41999999999999998
aF0.42499999999999999
aF0.42999999999999999
aF0.435
aF0.44
aF0.44500000000000001
aF0.45000000000000001
aF0.45500000000000002
aF0.46000000000000002
aF0.46500000000000002
aF0.46999999999999997
aF0.47499999999999998
aF0.47999999999999998
aF0.48499999999999999
aF0.48999999999999999
aF0.495
aF0.5
assS'3'
(dp16
g3
I3
sg4
(dp17
S'p'
I01
sS'Uy'
p18
I01
sS'Ux'
p19
I01
ssg8
(dp20
S'p'
(lp21
F67
aF63
aF61
aF60
aF59
aF58
aF56
aF57
aF56
aF56
aF55
aF54
aF53
aF53
aF52
aF52
aF52
aF45
aF44
aF50
aF50
aF48
aF46
aF46
aF46
aF24
aF41
aF23
aF38
aF44
aF37
aF43
aF36
aF42
aF36
aF39
aF42
aF4
aF4
aF1
aF3
aF3
aF2
aF1
aF2
aF2
aF1
aF2
aF2
aF1
aF1
aF2
aF1
aF2
aF1
aF1
aF2
aF1
aF1
aF1
aF2
aF0
aF2
aF0
aF2
aF0
aF1
aF1
aF1
aF1
aF1
aF1
aF1
aF1
aF1
aF1
aF1
aF1
aF0
aF1
aF1
aF1
aF1
aF0
aF1
aF1
aF1
aF0
aF1
aF1
aF0
aF1
aF1
aF0
aF1
aF1
aF0
aF1
aF1
asg18
(lp22
F6
aF7
aF6
aF6
aF5
aF5
aF5
aF5
aF5
aF5
aF5
aF4
aF3
aF3
aF3
aF3
aF3
aF3
aF3
aF3
aF3
aF3
aF3
aF3
aF3
aF2
aF2
aF2
aF1
aF1
aF1
aF1
aF1
aF1
aF1
aF1
aF1
aF0
aF0
aF0
aF0
aF0
aF0
aF0
aF0
aF0
aF0
aF0
aF0
aF0
aF0
aF0
aF0
aF0
aF0
aF0
aF0
aF0
aF0
aF0
aF0
aF0
aF0
aF0
aF0
aF0
aF0
aF0
aF0
aF0
aF0
aF0
aF0
aF0
aF0
aF0
aF0
aF0
aF0
aF0
aF0
aF0
aF0
aF0
aF0
aF0
aF0
aF0
aF0
aF0
aF0
aF0
aF0
aF0
aF0
aF0
aF0
aF0
aF0
asg19
(lp23
F6
aF6
aF6
aF5
aF5
aF5
aF4
aF4
aF4
aF4
aF4
aF4
aF4
aF3
aF3
aF3
aF2
aF2
aF2
aF2
aF2
aF2
aF2
aF2
aF2
aF2
aF2
aF2
aF1
aF1
aF1
aF1
aF1
aF1
aF0
aF0
aF0
aF0
aF0
aF0
aF0
aF0
aF0
aF0
aF0
aF0
aF0
aF0
aF0
aF0
aF0
aF0
aF0
aF0
aF0
aF0
aF0
aF0
aF0
aF0
aF0
aF0
aF0
aF0
aF0
aF0
aF0
aF0
aF0
aF0
aF0
aF0
aF0
aF0
aF0
aF0
aF0
aF0
aF0
aF0
aF0
aF0
aF0
aF0
aF0
aF0
aF0
aF0
aF0
aF0
aF0
aF0
aF0
aF0
aF0
aF0
aF0
aF0
aF0
assg12
(lp24
sg14
(lp25
F0.01
aF0.014999999999999999
aF0.02
aF0.025000000000000001
aF0.029999999999999999
aF0.035000000000000003
aF0.040000000000000001
aF0.044999999999999998
aF0.050000000000000003
aF0.055
aF0.059999999999999998
aF0.065000000000000002
aF0.070000000000000007
aF0.074999999999999997
aF0.080000000000000002
aF0.085000000000000006
aF0.089999999999999997
aF0.095000000000000001
aF0.10000000000000001
aF0.105
aF0.11
aF0.115
aF0.12
aF0.125
aF0.13
aF0.13500000000000001
aF0.14000000000000001
aF0.14499999999999999
aF0.14999999999999999
aF0.155
aF0.16
aF0.16500000000000001
aF0.17000000000000001
aF0.17499999999999999
aF0.17999999999999999
aF0.185
aF0.19
aF0.19500000000000001
aF0.20000000000000001
aF0.20499999999999999
aF0.20999999999999999
aF0.215
aF0.22
aF0.22500000000000001
aF0.23000000000000001
aF0.23499999999999999
aF0.23999999999999999
aF0.245
aF0.25
aF0.255
aF0.26000000000000001
aF0.26500000000000001
aF0.27000000000000002
aF0.27500000000000002
aF0.28000000000000003
aF0.28499999999999998
aF0.28999999999999998
aF0.29499999999999998
aF0.29999999999999999
aF0.30499999999999999
aF0.31
aF0.315
aF0.32000000000000001
aF0.32500000000000001
aF0.33000000000000002
aF0.33500000000000002
aF0.34000000000000002
aF0.34499999999999997
aF0.34999999999999998
aF0.35499999999999998
aF0.35999999999999999
aF0.36499999999999999
aF0.37
aF0.375
aF0.38
aF0.38500000000000001
aF0.39000000000000001
aF0.39500000000000002
aF0.40000000000000002
aF0.40500000000000003
aF0.40999999999999998
aF0.41499999999999998
aF0.41999999999999998
aF0.42499999999999999
aF0.42999999999999999
aF0.435
aF0.44
aF0.44500000000000001
aF0.45000000000000001
aF0.45500000000000002
aF0.46000000000000002
aF0.46500000000000002
aF0.46999999999999997
aF0.47499999999999998
aF0.47999999999999998
aF0.48499999999999999
aF0.48999999999999999
aF0.495
aF0.5
assS'2'
(dp26
g3
I2
sg4
(dp27
S'p_final'
p28
I01
sS'Ux_iterations'
p29
I01
sS'Uy'
p30
I01
sS'Ux'
p31
I01
sS'p_iterations'
p32
I01
sS'p'
I01
sS'Ux_final'
p33
I01
sS'Uy_final'
p34
I01
sS'Uy_iterations'
p35
I01
ssg8
(dp36
g28
(lp37
F5.9963700000000001e-07
aF7.2656100000000004e-07
aF7.2846300000000003e-07
aF5.1921100000000003e-07
aF9.8037699999999996e-07
aF5.4146100000000001e-07
aF5.8655199999999997e-07
aF6.8098800000000001e-07
aF5.3594399999999997e-07
aF3.7773700000000002e-07
aF6.9969600000000005e-07
aF5.1525300000000004e-07
aF8.4223000000000004e-07
aF6.7504700000000002e-07
aF5.1261199999999998e-07
aF3.95699e-07
aF3.4087299999999998e-07
aF9.7632300000000008e-07
aF6.9974299999999997e-07
aF5.2255200000000003e-07
aF4.15146e-07
aF9.9460300000000006e-07
aF7.5051999999999997e-07
aF5.8280899999999999e-07
aF4.7204199999999999e-07
aF6.7222199999999997e-07
aF8.1904099999999998e-07
aF9.2404800000000002e-07
aF6.70681e-07
aF3.7036500000000002e-07
aF8.1337599999999999e-07
aF8.9660800000000003e-07
aF5.1376500000000005e-07
aF6.1073999999999998e-07
aF5.6918399999999997e-07
aF8.7773099999999999e-07
aF5.8352199999999998e-07
aF9.1800499999999997e-07
aF9.6385700000000008e-07
aF8.4717599999999999e-07
aF9.9585799999999997e-07
aF6.1963099999999997e-07
aF5.7348399999999998e-07
aF8.1675200000000001e-07
aF9.0166499999999997e-07
aF5.97289e-07
aF9.7931699999999993e-07
aF8.2335999999999998e-07
aF6.17365e-07
aF9.4418699999999996e-07
aF8.6947199999999997e-07
aF7.2659900000000003e-07
aF8.63367e-07
aF6.7394499999999999e-07
aF7.9495800000000002e-07
aF8.8174199999999996e-07
aF6.7461400000000003e-07
aF6.8065800000000001e-07
aF8.0982200000000004e-07
aF8.8487599999999996e-07
aF5.9016499999999996e-07
aF8.6511700000000003e-07
aF5.5000899999999996e-07
aF8.81337e-07
aF5.7311499999999995e-07
aF8.8947700000000002e-07
aF9.5515700000000006e-07
aF8.8526399999999998e-07
aF8.4291399999999997e-07
aF8.4700699999999998e-07
aF7.8743099999999998e-07
aF7.8054199999999998e-07
aF7.4822199999999996e-07
aF7.3521499999999996e-07
aF7.0836499999999995e-07
aF4.9394900000000002e-07
aF4.6078799999999998e-07
aF4.5177500000000001e-07
aF9.5593000000000001e-07
aF7.6590899999999998e-07
aF6.5932299999999998e-07
aF4.3487199999999998e-07
aF4.0308199999999998e-07
aF9.0972900000000001e-07
aF7.0398199999999998e-07
aF6.0719800000000004e-07
aF3.9287299999999997e-07
aF9.8315199999999991e-07
aF7.06215e-07
aF5.8009900000000004e-07
aF9.7277000000000005e-07
aF7.2921900000000004e-07
aF5.7265300000000001e-07
aF9.7808700000000007e-07
aF7.0659900000000001e-07
aF5.5245699999999998e-07
aF9.4643599999999999e-07
aF6.8157399999999999e-07
aF5.3611800000000001e-07
asg29
(lp38
F6
aF6
aF6
aF5
aF5
aF5
aF4
aF4
aF4
aF4
aF4
aF4
aF4
aF3
aF3
aF3
aF2
aF2
aF2
aF2
aF2
aF2
aF2
aF2
aF2
aF2
aF2
aF2
aF1
aF1
aF1
aF1
aF1
aF1
aF0
aF0
aF0
aF0
aF0
aF0
aF0
aF0
aF0
aF0
aF0
aF0
aF0
aF0
aF0
aF0
aF0
aF0
aF0
aF0
aF0
aF0
aF0
aF0
aF0
aF0
aF0
aF0
aF0
aF0
aF0
aF0
aF0
aF0
aF0
aF0
aF0
aF0
aF0
aF0
aF0
aF0
aF0
aF0
aF0
aF0
aF0
aF0
aF0
aF0
aF0
aF0
aF0
aF0
aF0
aF0
aF0
aF0
aF0
aF0
aF0
aF0
aF0
aF0
aF0
asg30
(lp39
F0.25661800000000001
aF0.078240799999999999
aF0.0468574
aF0.0300383
aF0.0210663
aF0.015334199999999999
aF0.0114527
aF0.0086970299999999997
aF0.0066826400000000001
aF0.0051777899999999998
aF0.0040363300000000003
aF0.00316074
aF0.00248138
aF0.0019546099999999999
aF0.0015422000000000001
aF0.00121919
aF0.00096488100000000001
aF0.00076410400000000004
aF0.000604438
aF0.000478288
aF0.00037849999999999998
aF0.00029958300000000002
aF0.000237111
aF0.000187684
aF0.00014857299999999999
aF0.000117611
aF9.1687800000000007e-05
aF7.22555e-05
aF5.6685999999999999e-05
aF4.4450199999999997e-05
aF3.5833400000000002e-05
aF2.9030099999999998e-05
aF2.35873e-05
aF1.9306000000000001e-05
aF1.5766200000000002e-05
aF1.29671e-05
aF1.1129e-05
aF9.6189700000000002e-06
aF9.4337999999999994e-06
aF9.4610100000000004e-06
aF8.9357300000000002e-06
aF8.6183199999999998e-06
aF8.4129000000000004e-06
aF7.8965999999999999e-06
aF7.5353300000000001e-06
aF7.2614200000000002e-06
aF6.8933700000000004e-06
aF6.5106400000000002e-06
aF6.1980300000000002e-06
aF5.9235600000000001e-06
aF5.61687e-06
aF5.3738600000000001e-06
aF5.0756500000000003e-06
aF4.8214299999999997e-06
aF4.5588000000000003e-06
aF4.3165099999999999e-06
aF4.1125900000000004e-06
aF3.87903e-06
aF3.6720300000000001e-06
aF3.5005900000000001e-06
aF3.3100999999999999e-06
aF3.1232e-06
aF2.9835899999999998e-06
aF2.8051800000000001e-06
aF2.6783100000000001e-06
aF2.5163700000000002e-06
aF2.4022999999999999e-06
aF2.25371e-06
aF2.1522700000000001e-06
aF2.0223499999999998e-06
aF1.9228999999999998e-06
aF1.8144599999999999e-06
aF1.72226e-06
aF1.6272099999999999e-06
aF1.5427399999999999e-06
aF1.45835e-06
aF1.3788100000000001e-06
aF1.3036300000000001e-06
aF1.2329099999999999e-06
aF1.17431e-06
aF1.1092300000000001e-06
aF1.04906e-06
aF9.9238600000000006e-07
aF9.3765199999999998e-07
aF8.9213200000000004e-07
aF8.4176299999999997e-07
aF7.9662300000000003e-07
aF7.5532000000000002e-07
aF7.1454799999999995e-07
aF6.7740300000000005e-07
aF6.3805900000000001e-07
aF6.0689800000000001e-07
aF5.7384799999999996e-07
aF5.41476e-07
aF5.1435500000000003e-07
aF4.8753399999999998e-07
aF4.59868e-07
aF4.36311e-07
aF4.1452199999999998e-07
asg31
(lp40
F0.14858399999999999
aF0.044866900000000001
aF0.0235438
aF0.014880900000000001
aF0.0102267
aF0.0073584699999999998
aF0.0054438500000000001
aF0.0040903900000000002
aF0.0031304499999999999
aF0.0024137999999999998
aF0.0018707699999999999
aF0.0014592400000000001
aF0.0011446099999999999
aF0.00090015199999999998
aF0.00071036299999999999
aF0.00056081900000000005
aF0.00044332399999999999
aF0.00034924100000000003
aF0.00027581799999999999
aF0.00021798499999999999
aF0.00017239499999999999
aF0.00013638600000000001
aF0.000107928
aF8.5413000000000004e-05
aF6.7606400000000004e-05
aF5.35159e-05
aF4.2458900000000001e-05
aF3.32926e-05
aF2.62109e-05
aF2.2447300000000001e-05
aF1.8509399999999999e-05
aF1.52399e-05
aF1.27424e-05
aF1.04609e-05
aF8.8420699999999992e-06
aF8.5096999999999992e-06
aF7.6855499999999996e-06
aF6.8841400000000001e-06
aF6.0171399999999998e-06
aF5.2822e-06
aF5.06717e-06
aF4.6965300000000002e-06
aF4.3721299999999996e-06
aF4.0952899999999997e-06
aF3.9132199999999998e-06
aF3.6735200000000002e-06
aF3.46542e-06
aF3.2425299999999999e-06
aF3.0535000000000001e-06
aF2.8801000000000002e-06
aF2.7107600000000001e-06
aF2.5856899999999998e-06
aF2.4216600000000002e-06
aF2.2966600000000001e-06
aF2.1591900000000002e-06
aF2.0380900000000002e-06
aF1.94216e-06
aF1.8219300000000001e-06
aF1.7196e-06
aF1.6382400000000001e-06
aF1.5441e-06
aF1.4496399999999999e-06
aF1.3866500000000001e-06
aF1.29703e-06
aF1.2399599999999999e-06
aF1.1602900000000001e-06
aF1.10911e-06
aF1.0390999999999999e-06
aF9.9169999999999997e-07
aF9.3142400000000002e-07
aF8.8485500000000002e-07
aF8.3470800000000004e-07
aF7.9133300000000001e-07
aF7.4751999999999996e-07
aF7.0767599999999999e-07
aF6.6901800000000004e-07
aF6.3124499999999996e-07
aF5.96779e-07
aF5.6339999999999998e-07
aF5.3755799999999995e-07
aF5.0766699999999996e-07
aF4.7962899999999999e-07
aF4.5317700000000001e-07
aF4.2789800000000001e-07
aF4.0775900000000002e-07
aF3.84564e-07
aF3.6366099999999999e-07
aF3.4409299999999998e-07
aF3.2689599999999999e-07
aF3.0942500000000001e-07
aF2.9136199999999999e-07
aF2.77976e-07
aF2.6220600000000001e-07
aF2.4709700000000001e-07
aF2.3554999999999999e-07
aF2.2282899999999999e-07
aF2.0958800000000001e-07
aF1.9966500000000001e-07
aF1.8949299999999999e-07
asg32
(lp41
F67
aF63
aF61
aF60
aF59
aF58
aF56
aF57
aF56
aF56
aF55
aF54
aF53
aF53
aF52
aF52
aF52
aF45
aF44
aF50
aF50
aF48
aF46
aF46
aF46
aF24
aF41
aF23
aF38
aF44
aF37
aF43
aF36
aF42
aF36
aF39
aF42
aF4
aF4
aF1
aF3
aF3
aF2
aF1
aF2
aF2
aF1
aF2
aF2
aF1
aF1
aF2
aF1
aF2
aF1
aF1
aF2
aF1
aF1
aF1
aF2
aF0
aF2
aF0
aF2
aF0
aF1
aF1
aF1
aF1
aF1
aF1
aF1
aF1
aF1
aF1
aF1
aF1
aF0
aF1
aF1
aF1
aF1
aF0
aF1
aF1
aF1
aF0
aF1
aF1
aF0
aF1
aF1
aF0
aF1
aF1
aF0
aF1
aF1
asS'p'
(lp42
F0.37923200000000001
aF0.10959099999999999
aF0.0526656
aF0.034559399999999997
aF0.023681199999999999
aF0.0172351
aF0.012750299999999999
aF0.0095935099999999995
aF0.0073029200000000001
aF0.0055950899999999996
aF0.00430832
aF0.00336295
aF0.0026200099999999999
aF0.0020215400000000001
aF0.00158855
aF0.00124716
aF0.00098792099999999989
aF0.00077778400000000001
aF0.000612763
aF0.00048412299999999999
aF0.00038247699999999999
aF0.00030200399999999998
aF0.00023843399999999999
aF0.00018817000000000001
aF0.00014871099999999999
aF0.00012163900000000001
aF9.2385000000000004e-05
aF7.3349299999999999e-05
aF0.00012458200000000001
aF9.6218399999999993e-05
aF7.7470699999999997e-05
aF7.0803900000000002e-05
aF5.37106e-05
aF5.1765699999999998e-05
aF8.37858e-05
aF6.5635800000000006e-05
aF5.7079900000000002e-05
aF2.0899199999999998e-06
aF1.82152e-06
aF1.5093600000000001e-06
aF1.53222e-06
aF1.20267e-06
aF8.8108699999999998e-07
aF9.6652600000000006e-07
aF1.0957900000000001e-06
aF1.3115399999999999e-06
aF9.9480499999999991e-07
aF1.49561e-06
aF1.01322e-06
aF7.96016e-07
aF1.32012e-06
aF1.2825e-06
aF1.00571e-06
aF1.17435e-06
aF8.8753899999999999e-07
aF1.16209e-06
aF1.22749e-06
aF8.9596000000000004e-07
aF1.01499e-06
aF1.1033600000000001e-06
aF1.1682000000000001e-06
aF7.28573e-07
aF1.0772100000000001e-06
aF7.2992000000000001e-07
aF1.08672e-06
aF7.4526799999999995e-07
aF1.07657e-06
aF1.2623500000000001e-06
aF1.2550700000000001e-06
aF1.1309400000000001e-06
aF1.1796900000000001e-06
aF1.07821e-06
aF1.08761e-06
aF1.03111e-06
aF1.0288800000000001e-06
aF9.8177899999999991e-07
aF9.2463699999999997e-07
aF7.9549900000000002e-07
aF7.6655100000000002e-07
aF1.1434299999999999e-06
aF1.1346999999999999e-06
aF9.4936400000000003e-07
aF8.3173699999999998e-07
aF7.1631600000000005e-07
aF1.0964899999999999e-06
aF1.05114e-06
aF8.7508399999999998e-07
aF7.6016500000000003e-07
aF1.1842700000000001e-06
aF1.0965100000000001e-06
aF8.3652600000000004e-07
aF1.1012200000000001e-06
aF1.12915e-06
aF8.3628100000000005e-07
aF1.1102200000000001e-06
aF1.10464e-06
aF8.0888399999999998e-07
aF1.0746000000000001e-06
aF1.06665e-06
asg33
(lp43
F7.1571100000000003e-06
aF2.3989399999999999e-06
aF1.5707400000000001e-06
aF5.1440100000000001e-06
aF4.3731800000000002e-06
aF3.5698300000000001e-06
aF7.5438200000000002e-06
aF5.1748900000000004e-06
aF4.2348700000000003e-06
aF3.6588099999999999e-06
aF3.21659e-06
aF2.8180599999999999e-06
aF2.4429899999999999e-06
aF9.7572799999999992e-06
aF8.1178500000000006e-06
aF6.6193700000000001e-06
aF8.4572799999999998e-06
aF7.1639199999999998e-06
aF5.9481200000000004e-06
aF4.8935400000000001e-06
aF4.0269600000000003e-06
aF3.2520099999999998e-06
aF2.6517200000000001e-06
aF2.1390000000000002e-06
aF1.70369e-06
aF1.3527599999999999e-06
aF1.12216e-06
aF8.5860000000000003e-07
aF9.4285600000000004e-06
aF9.0794300000000002e-06
aF7.5462300000000003e-06
aF7.1450000000000002e-06
aF5.5808e-06
aF5.4343499999999999e-06
aF8.8420699999999992e-06
aF8.5096999999999992e-06
aF7.6855499999999996e-06
aF6.8841400000000001e-06
aF6.0171399999999998e-06
aF5.2822e-06
aF5.06717e-06
aF4.6965300000000002e-06
aF4.3721299999999996e-06
aF4.0952899999999997e-06
aF3.9132199999999998e-06
aF3.6735200000000002e-06
aF3.46542e-06
aF3.2425299999999999e-06
aF3.0535000000000001e-06
aF2.8801000000000002e-06
aF2.7107600000000001e-06
aF2.5856899999999998e-06
aF2.4216600000000002e-06
aF2.2966600000000001e-06
aF2.1591900000000002e-06
aF2.0380900000000002e-06
aF1.94216e-06
aF1.8219300000000001e-06
aF1.7196e-06
aF1.6382400000000001e-06
aF1.5441e-06
aF1.4496399999999999e-06
aF1.3866500000000001e-06
aF1.29703e-06
aF1.2399599999999999e-06
aF1.1602900000000001e-06
aF1.10911e-06
aF1.0390999999999999e-06
aF9.9169999999999997e-07
aF9.3142400000000002e-07
aF8.8485500000000002e-07
aF8.3470800000000004e-07
aF7.9133300000000001e-07
aF7.4751999999999996e-07
aF7.0767599999999999e-07
aF6.6901800000000004e-07
aF6.3124499999999996e-07
aF5.96779e-07
aF5.6339999999999998e-07
aF5.3755799999999995e-07
aF5.0766699999999996e-07
aF4.7962899999999999e-07
aF4.5317700000000001e-07
aF4.2789800000000001e-07
aF4.0775900000000002e-07
aF3.84564e-07
aF3.6366099999999999e-07
aF3.4409299999999998e-07
aF3.2689599999999999e-07
aF3.0942500000000001e-07
aF2.9136199999999999e-07
aF2.77976e-07
aF2.6220600000000001e-07
aF2.4709700000000001e-07
aF2.3554999999999999e-07
aF2.2282899999999999e-07
aF2.0958800000000001e-07
aF1.9966500000000001e-07
aF1.8949299999999999e-07
asg34
(lp44
F8.9412699999999999e-06
aF1.45948e-06
aF5.2774100000000003e-06
aF1.9437300000000001e-06
aF8.7945099999999993e-06
aF3.40371e-06
aF2.1938099999999999e-06
aF1.9022800000000001e-06
aF1.9873500000000001e-06
aF2.3784299999999999e-06
aF3.7125999999999998e-06
aF7.7449299999999997e-06
aF9.6803100000000002e-06
aF7.9591800000000003e-06
aF6.5059800000000003e-06
aF5.3011400000000002e-06
aF4.3005300000000001e-06
aF3.4848699999999999e-06
aF2.7937399999999999e-06
aF2.2280199999999998e-06
aF1.7601300000000001e-06
aF1.40597e-06
aF1.1234300000000001e-06
aF8.9638500000000002e-07
aF7.1078199999999997e-07
aF9.8825700000000005e-06
aF6.8607799999999999e-06
aF5.5532800000000001e-06
aF7.6195499999999997e-06
aF6.2683499999999999e-06
aF5.1499600000000004e-06
aF4.0979299999999997e-06
aF3.4984100000000001e-06
aF2.7900399999999998e-06
aF2.4186699999999998e-06
aF2.0030499999999998e-06
aF1.71354e-06
aF9.6189700000000002e-06
aF9.4337999999999994e-06
aF9.4610100000000004e-06
aF8.9357300000000002e-06
aF8.6183199999999998e-06
aF8.4129000000000004e-06
aF7.8965999999999999e-06
aF7.5353300000000001e-06
aF7.2614200000000002e-06
aF6.8933700000000004e-06
aF6.5106400000000002e-06
aF6.1980300000000002e-06
aF5.9235600000000001e-06
aF5.61687e-06
aF5.3738600000000001e-06
aF5.0756500000000003e-06
aF4.8214299999999997e-06
aF4.5588000000000003e-06
aF4.3165099999999999e-06
aF4.1125900000000004e-06
aF3.87903e-06
aF3.6720300000000001e-06
aF3.5005900000000001e-06
aF3.3100999999999999e-06
aF3.1232e-06
aF2.9835899999999998e-06
aF2.8051800000000001e-06
aF2.6783100000000001e-06
aF2.5163700000000002e-06
aF2.4022999999999999e-06
aF2.25371e-06
aF2.1522700000000001e-06
aF2.0223499999999998e-06
aF1.9228999999999998e-06
aF1.8144599999999999e-06
aF1.72226e-06
aF1.6272099999999999e-06
aF1.5427399999999999e-06
aF1.45835e-06
aF1.3788100000000001e-06
aF1.3036300000000001e-06
aF1.2329099999999999e-06
aF1.17431e-06
aF1.1092300000000001e-06
aF1.04906e-06
aF9.9238600000000006e-07
aF9.3765199999999998e-07
aF8.9213200000000004e-07
aF8.4176299999999997e-07
aF7.9662300000000003e-07
aF7.5532000000000002e-07
aF7.1454799999999995e-07
aF6.7740300000000005e-07
aF6.3805900000000001e-07
aF6.0689800000000001e-07
aF5.7384799999999996e-07
aF5.41476e-07
aF5.1435500000000003e-07
aF4.8753399999999998e-07
aF4.59868e-07
aF4.36311e-07
aF4.1452199999999998e-07
asg35
(lp45
F6
aF7
aF6
aF6
aF5
aF5
aF5
aF5
aF5
aF5
aF5
aF4
aF3
aF3
aF3
aF3
aF3
aF3
aF3
aF3
aF3
aF3
aF3
aF3
aF3
aF2
aF2
aF2
aF1
aF1
aF1
aF1
aF1
aF1
aF1
aF1
aF1
aF0
aF0
aF0
aF0
aF0
aF0
aF0
aF0
aF0
aF0
aF0
aF0
aF0
aF0
aF0
aF0
aF0
aF0
aF0
aF0
aF0
aF0
aF0
aF0
aF0
aF0
aF0
aF0
aF0
aF0
aF0
aF0
aF0
aF0
aF0
aF0
aF0
aF0
aF0
aF0
aF0
aF0
aF0
aF0
aF0
aF0
aF0
aF0
aF0
aF0
aF0
aF0
aF0
aF0
aF0
aF0
aF0
aF0
aF0
aF0
aF0
aF0
assg12
(lp46
sg14
(lp47
F0.01
aF0.014999999999999999
aF0.02
aF0.025000000000000001
aF0.029999999999999999
aF0.035000000000000003
aF0.040000000000000001
aF0.044999999999999998
aF0.050000000000000003
aF0.055
aF0.059999999999999998
aF0.065000000000000002
aF0.070000000000000007
aF0.074999999999999997
aF0.080000000000000002
aF0.085000000000000006
aF0.089999999999999997
aF0.095000000000000001
aF0.10000000000000001
aF0.105
aF0.11
aF0.115
aF0.12
aF0.125
aF0.13
aF0.13500000000000001
aF0.14000000000000001
aF0.14499999999999999
aF0.14999999999999999
aF0.155
aF0.16
aF0.16500000000000001
aF0.17000000000000001
aF0.17499999999999999
aF0.17999999999999999
aF0.185
aF0.19
aF0.19500000000000001
aF0.20000000000000001
aF0.20499999999999999
aF0.20999999999999999
aF0.215
aF0.22
aF0.22500000000000001
aF0.23000000000000001
aF0.23499999999999999
aF0.23999999999999999
aF0.245
aF0.25
aF0.255
aF0.26000000000000001
aF0.26500000000000001
aF0.27000000000000002
aF0.27500000000000002
aF0.28000000000000003
aF0.28499999999999998
aF0.28999999999999998
aF0.29499999999999998
aF0.29999999999999999
aF0.30499999999999999
aF0.31
aF0.315
aF0.32000000000000001
aF0.32500000000000001
aF0.33000000000000002
aF0.33500000000000002
aF0.34000000000000002
aF0.34499999999999997
aF0.34999999999999998
aF0.35499999999999998
aF0.35999999999999999
aF0.36499999999999999
aF0.37
aF0.375
aF0.38
aF0.38500000000000001
aF0.39000000000000001
aF0.39500000000000002
aF0.40000000000000002
aF0.40500000000000003
aF0.40999999999999998
aF0.41499999999999998
aF0.41999999999999998
aF0.42499999999999999
aF0.42999999999999999
aF0.435
aF0.44
aF0.44500000000000001
aF0.45000000000000001
aF0.45500000000000002
aF0.46000000000000002
aF0.46500000000000002
aF0.46999999999999997
aF0.47499999999999998
aF0.47999999999999998
aF0.48499999999999999
aF0.48999999999999999
aF0.495
aF0.5
assS'5'
(dp48
g3
I5
sg4
(dp49
sg8
(dp50
sg12
(lp51
sg14
(lp52
ssS'4'
(dp53
g3
I4
sg4
(dp54
S'cpu'
p55
I01
sS'clock'
p56
I01
ssg8
(dp57
g55
(lp58
F0.010000000000000002
aF0.009999999999999995
aF0.020000000000000004
aF0.009999999999999995
aF0.010000000000000009
aF0.009999999999999995
aF0.020000000000000004
aF0.010000000000000009
aF0.0099999999999999811
aF0.020000000000000018
aF0.0099999999999999811
aF0.010000000000000009
aF0.010000000000000009
aF0.0099999999999999811
aF0.020000000000000018
aF0
aF0.01999999999999999
aF0.010000000000000009
aF0.010000000000000009
aF0.019999999999999962
aF0.010000000000000009
aF0.010000000000000009
aF0.010000000000000009
aF0.010000000000000009
aF0.010000000000000009
aF0.0099999999999999534
aF0.020000000000000018
aF0.010000000000000009
aF0.010000000000000009
aF0.010000000000000009
aF0.0099999999999999534
aF0.020000000000000018
aF0.010000000000000009
aF0.010000000000000009
aF0.010000000000000009
aF0.0099999999999999534
aF0.010000000000000009
aF0.010000000000000009
aF0.020000000000000018
aF0
aF0.020000000000000018
aF0
aF0.020000000000000018
aF0
aF0.019999999999999907
aF0.010000000000000009
aF0.010000000000000009
aF0.010000000000000009
aF0.010000000000000009
aF0.010000000000000009
aF0.010000000000000009
aF0.010000000000000009
aF0.010000000000000009
aF0.010000000000000009
aF0.010000000000000009
aF0.010000000000000009
aF0.0099999999999998979
aF0.010000000000000009
aF0.010000000000000009
aF0.010000000000000009
aF0.010000000000000009
aF0.010000000000000009
aF0.010000000000000009
aF0.020000000000000018
aF0
aF0.020000000000000018
aF0
aF0.020000000000000018
aF0
aF0.019999999999999907
aF0
aF0.020000000000000018
aF0
aF0.020000000000000018
aF0
aF0.020000000000000018
aF0
aF0.010000000000000009
aF0.020000000000000018
aF0.010000000000000009
aF0.0099999999999998979
aF0.010000000000000009
aF0.010000000000000009
aF0.010000000000000009
aF0.010000000000000009
aF0.010000000000000009
aF0.010000000000000009
aF0.010000000000000009
aF0.010000000000000009
aF0.010000000000000009
aF0.010000000000000009
aF0.010000000000000009
aF0.010000000000000009
aF0.010000000000000009
aF0
aF0.020000000000000018
aF0
aF0.020000000000000018
aF0.010000000000000009
asg56
(lp59
F0
aF0
aF0
aF0
aF0
aF0
aF0
aF0
aF0
aF0
aF0
aF0
aF0
aF0
aF0
aF0
aF0
aF0
aF0
aF0
aF0
aF0
aF0
aF0
aF0
aF0
aF0
aF0
aF0
aF0
aF0
aF0
aF0
aF0
aF0
aF0
aF0
aF0
aF0
aF0
aF0
aF0
aF0
aF0
aF0
aF0
aF0
aF0
aF0
aF0
aF0
aF0
aF1
aF0
aF0
aF0
aF0
aF0
aF0
aF0
aF0
aF0
aF0
aF0
aF0
aF0
aF0
aF0
aF0
aF0
aF0
aF0
aF0
aF0
aF0
aF0
aF0
aF0
aF0
aF0
aF0
aF0
aF0
aF0
aF0
aF0
aF0
aF0
aF0
aF0
aF0
aF0
aF0
aF0
aF0
aF0
aF0
aF0
aF0
assg12
(lp60
sg14
(lp61
F0.01
aF0.014999999999999999
aF0.02
aF0.025000000000000001
aF0.029999999999999999
aF0.035000000000000003
aF0.040000000000000001
aF0.044999999999999998
aF0.050000000000000003
aF0.055
aF0.059999999999999998
aF0.065000000000000002
aF0.070000000000000007
aF0.074999999999999997
aF0.080000000000000002
aF0.085000000000000006
aF0.089999999999999997
aF0.095000000000000001
aF0.10000000000000001
aF0.105
aF0.11
aF0.115
aF0.12
aF0.125
aF0.13
aF0.13500000000000001
aF0.14000000000000001
aF0.14499999999999999
aF0.14999999999999999
aF0.155
aF0.16
aF0.16500000000000001
aF0.17000000000000001
aF0.17499999999999999
aF0.17999999999999999
aF0.185
aF0.19
aF0.19500000000000001
aF0.20000000000000001
aF0.20499999999999999
aF0.20999999999999999
aF0.215
aF0.22
aF0.22500000000000001
aF0.23000000000000001
aF0.23499999999999999
aF0.23999999999999999
aF0.245
aF0.25
aF0.255
aF0.26000000000000001
aF0.26500000000000001
aF0.27000000000000002
aF0.27500000000000002
aF0.28000000000000003
aF0.28499999999999998
aF0.28999999999999998
aF0.29499999999999998
aF0.29999999999999999
aF0.30499999999999999
aF0.31
aF0.315
aF0.32000000000000001
aF0.32500000000000001
aF0.33000000000000002
aF0.33500000000000002
aF0.34000000000000002
aF0.34499999999999997
aF0.34999999999999998
aF0.35499999999999998
aF0.35999999999999999
aF0.36499999999999999
aF0.37
aF0.375
aF0.38
aF0.38500000000000001
aF0.39000000000000001
aF0.39500000000000002
aF0.40000000000000002
aF0.40500000000000003
aF0.40999999999999998
aF0.41499999999999998
aF0.41999999999999998
aF0.42499999999999999
aF0.42999999999999999
aF0.435
aF0.44
aF0.44500000000000001
aF0.45000000000000001
aF0.45500000000000002
aF0.46000000000000002
aF0.46500000000000002
aF0.46999999999999997
aF0.47499999999999998
aF0.47999999999999998
aF0.48499999999999999
aF0.48999999999999999
aF0.495
aF0.5
assS'7'
(dp62
g3
I7
sg4
(dp63
S'max'
p64
I01
sS'mean'
p65
I01
ssg8
(dp66
g64
(lp67
F0.58572199999999996
aF0.75828600000000002
aF0.800346
aF0.81982999999999995
aF0.83034200000000002
aF0.83686899999999997
aF0.84116500000000005
aF0.84411000000000003
aF0.84618400000000005
aF0.84767499999999996
aF0.84876300000000005
aF0.84956799999999999
aF0.85016999999999998
aF0.85062199999999999
aF0.850966
aF0.85122699999999996
aF0.85142799999999996
aF0.85158199999999995
aF0.85170299999999999
aF0.85179700000000003
aF0.85187000000000002
aF0.85192599999999996
aF0.85197100000000003
aF0.85200600000000004
aF0.85203300000000004
aF0.85205399999999998
aF0.85207200000000005
aF0.85208600000000001
aF0.85209599999999996
aF0.852105
aF0.85211099999999995
aF0.85211599999999998
aF0.85211899999999996
aF0.85212200000000005
aF0.85212399999999999
aF0.85212699999999997
aF0.852128
aF0.85212900000000003
aF0.852128
aF0.852128
aF0.852128
aF0.85212900000000003
aF0.85212900000000003
aF0.85212900000000003
aF0.85212900000000003
aF0.85212900000000003
aF0.85213000000000005
aF0.85213000000000005
aF0.85213000000000005
aF0.85213000000000005
aF0.85213000000000005
aF0.85213099999999997
aF0.85213099999999997
aF0.85213099999999997
aF0.85213099999999997
aF0.85213099999999997
aF0.85213099999999997
aF0.85213099999999997
aF0.852132
aF0.852132
aF0.852132
aF0.852132
aF0.852132
aF0.852132
aF0.852132
aF0.852132
aF0.852132
aF0.85213300000000003
aF0.85213300000000003
aF0.85213300000000003
aF0.85213300000000003
aF0.85213300000000003
aF0.85213300000000003
aF0.85213300000000003
aF0.85213300000000003
aF0.85213300000000003
aF0.85213300000000003
aF0.85213300000000003
aF0.85213300000000003
aF0.85213300000000003
aF0.85213300000000003
aF0.85213300000000003
aF0.85213300000000003
aF0.85213300000000003
aF0.85213300000000003
aF0.85213300000000003
aF0.85213300000000003
aF0.85213399999999995
aF0.85213399999999995
aF0.85213399999999995
aF0.85213399999999995
aF0.85213399999999995
aF0.85213399999999995
aF0.85213399999999995
aF0.85213399999999995
aF0.85213399999999995
aF0.85213399999999995
aF0.85213399999999995
aF0.85213399999999995
asg65
(lp68
F0.097680500000000003
aF0.14468500000000001
aF0.167376
aF0.18213099999999999
aF0.19222800000000001
aF0.19939699999999999
aF0.204647
aF0.20855899999999999
aF0.21152199999999999
aF0.21382499999999999
aF0.21562600000000001
aF0.21702099999999999
aF0.21811900000000001
aF0.218975
aF0.21964400000000001
aF0.22017100000000001
aF0.22058800000000001
aF0.220919
aF0.22117999999999999
aF0.221386
aF0.22154799999999999
aF0.22167600000000001
aF0.221778
aF0.221857
aF0.22192100000000001
aF0.22197
aF0.22201099999999999
aF0.22204299999999999
aF0.22206799999999999
aF0.222085
aF0.22209899999999999
aF0.22211
aF0.22211900000000001
aF0.22212599999999999
aF0.222132
aF0.222136
aF0.222139
aF0.22214100000000001
aF0.22214200000000001
aF0.22214300000000001
aF0.22214400000000001
aF0.22214500000000001
aF0.22214500000000001
aF0.22214600000000001
aF0.22214700000000001
aF0.22214700000000001
aF0.22214800000000001
aF0.22214800000000001
aF0.22214900000000001
aF0.22214900000000001
aF0.22214999999999999
aF0.22214999999999999
aF0.22215099999999999
aF0.22215099999999999
aF0.22215199999999999
aF0.22215199999999999
aF0.22215199999999999
aF0.22215299999999999
aF0.22215299999999999
aF0.22215299999999999
aF0.22215399999999999
aF0.22215399999999999
aF0.22215399999999999
aF0.22215499999999999
aF0.22215499999999999
aF0.22215499999999999
aF0.22215499999999999
aF0.22215499999999999
aF0.22215599999999999
aF0.22215599999999999
aF0.22215599999999999
aF0.22215599999999999
aF0.22215599999999999
aF0.22215599999999999
aF0.22215699999999999
aF0.22215699999999999
aF0.22215699999999999
aF0.22215699999999999
aF0.22215699999999999
aF0.22215699999999999
aF0.22215699999999999
aF0.22215699999999999
aF0.22215699999999999
aF0.22215699999999999
aF0.22215799999999999
aF0.22215799999999999
aF0.22215799999999999
aF0.22215799999999999
aF0.22215799999999999
aF0.22215799999999999
aF0.22215799999999999
aF0.22215799999999999
aF0.22215799999999999
aF0.22215799999999999
aF0.22215799999999999
aF0.22215799999999999
aF0.22215799999999999
aF0.22215799999999999
aF0.22215799999999999
assg12
(lp69
sg14
(lp70
F0.01
aF0.014999999999999999
aF0.02
aF0.025000000000000001
aF0.029999999999999999
aF0.035000000000000003
aF0.040000000000000001
aF0.044999999999999998
aF0.050000000000000003
aF0.055
aF0.059999999999999998
aF0.065000000000000002
aF0.070000000000000007
aF0.074999999999999997
aF0.080000000000000002
aF0.085000000000000006
aF0.089999999999999997
aF0.095000000000000001
aF0.10000000000000001
aF0.105
aF0.11
aF0.115
aF0.12
aF0.125
aF0.13
aF0.13500000000000001
aF0.14000000000000001
aF0.14499999999999999
aF0.14999999999999999
aF0.155
aF0.16
aF0.16500000000000001
aF0.17000000000000001
aF0.17499999999999999
aF0.17999999999999999
aF0.185
aF0.19
aF0.19500000000000001
aF0.20000000000000001
aF0.20499999999999999
aF0.20999999999999999
aF0.215
aF0.22
aF0.22500000000000001
aF0.23000000000000001
aF0.23499999999999999
aF0.23999999999999999
aF0.245
aF0.25
aF0.255
aF0.26000000000000001
aF0.26500000000000001
aF0.27000000000000002
aF0.27500000000000002
aF0.28000000000000003
aF0.28499999999999998
aF0.28999999999999998
aF0.29499999999999998
aF0.29999999999999999
aF0.30499999999999999
aF0.31
aF0.315
aF0.32000000000000001
aF0.32500000000000001
aF0.33000000000000002
aF0.33500000000000002
aF0.34000000000000002
aF0.34499999999999997
aF0.34999999999999998
aF0.35499999999999998
aF0.35999999999999999
aF0.36499999999999999
aF0.37
aF0.375
aF0.38
aF0.38500000000000001
aF0.39000000000000001
aF0.39500000000000002
aF0.40000000000000002
aF0.40500000000000003
aF0.40999999999999998
aF0.41499999999999998
aF0.41999999999999998
aF0.42499999999999999
aF0.42999999999999999
aF0.435
aF0.44
aF0.44500000000000001
aF0.45000000000000001
aF0.45500000000000002
aF0.46000000000000002
aF0.46500000000000002
aF0.46999999999999997
aF0.47499999999999998
aF0.47999999999999998
aF0.48499999999999999
aF0.48999999999999999
aF0.495
aF0.5
assS'6'
(dp71
g3
I6
sg4
(dp72
sg8
(dp73
sg12
(lp74
sg14
(lp75
ss.(dp76
S'1'
(dp77
g3
I1
sS'data'
p78
I2
sS'spec'
p79
(dp80
S'logscale'
p81
I01
sS'name'
p82
S'Custom01_linear'
p83
sS'with'
p84
S'lines'
p85
sS'expr'
p86
S''
sS'forbidden'
p87
(lp88
S'final'
p89
aS'iterations'
p90
asS'enabled'
p91
I01
sS'theTitle'
p92
S'Residuals'
p93
sS'titles'
p94
(lp95
sS'alternateAxis'
p96
(lp97
sS'raisit'
p98
I00
sS'persist'
p99
I01
sS'type'
p100
S'regular'
p101
sS'accumulation'
p102
S'first'
p103
ssS'id'
p104
S'linear'
p105
ssS'3'
(dp106
g3
I3
sg78
I6
sg79
(dp107
g81
I00
sg82
S'Custom03_bounding'
p108
sS'with'
p109
g85
sg86
S''
sg87
(lp110
sg91
I01
sg92
S'Bounded variables'
p111
sg94
(lp112
sg96
g97
sg98
I00
sg99
I01
sg100
g101
sg102
g103
ssg104
S'bounding'
p113
ssS'2'
(dp114
g3
I2
sg78
I1
sg79
(dp115
g81
I00
sg82
S'Custom02_continuity'
p116
sS'with'
p117
g85
sg86
S''
sg87
g110
sg91
I01
sg92
S'Continuity'
p118
sg94
(lp119
sg96
(lp120
g7
asg98
I00
sg99
I01
sg100
g101
sg102
g103
ssg104
S'continuity'
p121
ss.